target datalayout = "e-m:e-p270:32:32-p271:32:32-p272:64:64-i64:64-i128:128-f80:128-n8:16:32:64-S128"
target triple = "x86_64-pc-linux-gnu"

%struct.slurmdb_qos_rec_t = type { i64, ptr, i32, i32, i32, i32, i32, i32, ptr, ptr, ptr, ptr, ptr, ptr, i32, double, i32, i32, i32, i32, i32, i32, ptr, ptr, ptr, ptr, ptr, ptr, ptr, ptr, ptr, ptr, ptr, ptr, ptr, ptr, i32, i32, ptr, ptr, ptr, ptr, ptr, i16, i32, i32, ptr, ptr, double, double }

; Function Attrs: nounwind uwtable
define dso_local void @slurmdb_copy_qos_rec_limits(ptr noundef %0, ptr noundef %1) #0 {
  %3 = alloca ptr, align 8
  %4 = alloca ptr, align 8
  store ptr %0, ptr %3, align 8
  store ptr %1, ptr %4, align 8
  %5 = load ptr, ptr %4, align 8
  %6 = getelementptr inbounds nuw %struct.slurmdb_qos_rec_t, ptr %5, i32 0, i32 3
  %7 = load i32, ptr %6, align 4
  %8 = load ptr, ptr %3, align 8
  %9 = getelementptr inbounds nuw %struct.slurmdb_qos_rec_t, ptr %8, i32 0, i32 3
  store i32 %7, ptr %9, align 4
  %10 = load ptr, ptr %4, align 8
  %11 = getelementptr inbounds nuw %struct.slurmdb_qos_rec_t, ptr %10, i32 0, i32 4
  %12 = load i32, ptr %11, align 8
  %13 = load ptr, ptr %3, align 8
  %14 = getelementptr inbounds nuw %struct.slurmdb_qos_rec_t, ptr %13, i32 0, i32 4
  store i32 %12, ptr %14, align 8
  %15 = load ptr, ptr %4, align 8
  %16 = getelementptr inbounds nuw %struct.slurmdb_qos_rec_t, ptr %15, i32 0, i32 6
  %17 = load i32, ptr %16, align 8
  %18 = load ptr, ptr %3, align 8
  %19 = getelementptr inbounds nuw %struct.slurmdb_qos_rec_t, ptr %18, i32 0, i32 6
  store i32 %17, ptr %19, align 8
  %20 = load ptr, ptr %4, align 8
  %21 = getelementptr inbounds nuw %struct.slurmdb_qos_rec_t, ptr %20, i32 0, i32 5
  %22 = load i32, ptr %21, align 4
  %23 = load ptr, ptr %3, align 8
  %24 = getelementptr inbounds nuw %struct.slurmdb_qos_rec_t, ptr %23, i32 0, i32 5
  store i32 %22, ptr %24, align 4
  %25 = load ptr, ptr %4, align 8
  %26 = getelementptr inbounds nuw %struct.slurmdb_qos_rec_t, ptr %25, i32 0, i32 7
  %27 = load i32, ptr %26, align 4
  %28 = load ptr, ptr %3, align 8
  %29 = getelementptr inbounds nuw %struct.slurmdb_qos_rec_t, ptr %28, i32 0, i32 7
  store i32 %27, ptr %29, align 4
  %30 = load ptr, ptr %3, align 8
  %31 = getelementptr inbounds nuw %struct.slurmdb_qos_rec_t, ptr %30, i32 0, i32 8
  call void @slurm_xfree(ptr noundef %31)
  %32 = load ptr, ptr %4, align 8
  %33 = getelementptr inbounds nuw %struct.slurmdb_qos_rec_t, ptr %32, i32 0, i32 8
  %34 = load ptr, ptr %33, align 8
  %35 = call ptr @xstrdup(ptr noundef %34)
  %36 = load ptr, ptr %3, align 8
  %37 = getelementptr inbounds nuw %struct.slurmdb_qos_rec_t, ptr %36, i32 0, i32 8
  store ptr %35, ptr %37, align 8
  %38 = load ptr, ptr %3, align 8
  %39 = getelementptr inbounds nuw %struct.slurmdb_qos_rec_t, ptr %38, i32 0, i32 10
  call void @slurm_xfree(ptr noundef %39)
  %40 = load ptr, ptr %4, align 8
  %41 = getelementptr inbounds nuw %struct.slurmdb_qos_rec_t, ptr %40, i32 0, i32 10
  %42 = load ptr, ptr %41, align 8
  %43 = call ptr @xstrdup(ptr noundef %42)
  %44 = load ptr, ptr %3, align 8
  %45 = getelementptr inbounds nuw %struct.slurmdb_qos_rec_t, ptr %44, i32 0, i32 10
  store ptr %43, ptr %45, align 8
  %46 = load ptr, ptr %3, align 8
  %47 = getelementptr inbounds nuw %struct.slurmdb_qos_rec_t, ptr %46, i32 0, i32 12
  call void @slurm_xfree(ptr noundef %47)
  %48 = load ptr, ptr %4, align 8
  %49 = getelementptr inbounds nuw %struct.slurmdb_qos_rec_t, ptr %48, i32 0, i32 12
  %50 = load ptr, ptr %49, align 8
  %51 = call ptr @xstrdup(ptr noundef %50)
  %52 = load ptr, ptr %3, align 8
  %53 = getelementptr inbounds nuw %struct.slurmdb_qos_rec_t, ptr %52, i32 0, i32 12
  store ptr %51, ptr %53, align 8
  %54 = load ptr, ptr %4, align 8
  %55 = getelementptr inbounds nuw %struct.slurmdb_qos_rec_t, ptr %54, i32 0, i32 14
  %56 = load i32, ptr %55, align 8
  %57 = load ptr, ptr %3, align 8
  %58 = getelementptr inbounds nuw %struct.slurmdb_qos_rec_t, ptr %57, i32 0, i32 14
  store i32 %56, ptr %58, align 8
  %59 = load ptr, ptr %4, align 8
  %60 = getelementptr inbounds nuw %struct.slurmdb_qos_rec_t, ptr %59, i32 0, i32 15
  %61 = load double, ptr %60, align 8
  %62 = load ptr, ptr %3, align 8
  %63 = getelementptr inbounds nuw %struct.slurmdb_qos_rec_t, ptr %62, i32 0, i32 15
  store double %61, ptr %63, align 8
  %64 = load ptr, ptr %4, align 8
  %65 = getelementptr inbounds nuw %struct.slurmdb_qos_rec_t, ptr %64, i32 0, i32 16
  %66 = load i32, ptr %65, align 8
  %67 = load ptr, ptr %3, align 8
  %68 = getelementptr inbounds nuw %struct.slurmdb_qos_rec_t, ptr %67, i32 0, i32 16
  store i32 %66, ptr %68, align 8
  %69 = load ptr, ptr %4, align 8
  %70 = getelementptr inbounds nuw %struct.slurmdb_qos_rec_t, ptr %69, i32 0, i32 17
  %71 = load i32, ptr %70, align 4
  %72 = load ptr, ptr %3, align 8
  %73 = getelementptr inbounds nuw %struct.slurmdb_qos_rec_t, ptr %72, i32 0, i32 17
  store i32 %71, ptr %73, align 4
  %74 = load ptr, ptr %4, align 8
  %75 = getelementptr inbounds nuw %struct.slurmdb_qos_rec_t, ptr %74, i32 0, i32 18
  %76 = load i32, ptr %75, align 8
  %77 = load ptr, ptr %3, align 8
  %78 = getelementptr inbounds nuw %struct.slurmdb_qos_rec_t, ptr %77, i32 0, i32 18
  store i32 %76, ptr %78, align 8
  %79 = load ptr, ptr %4, align 8
  %80 = getelementptr inbounds nuw %struct.slurmdb_qos_rec_t, ptr %79, i32 0, i32 19
  %81 = load i32, ptr %80, align 4
  %82 = load ptr, ptr %3, align 8
  %83 = getelementptr inbounds nuw %struct.slurmdb_qos_rec_t, ptr %82, i32 0, i32 19
  store i32 %81, ptr %83, align 4
  %84 = load ptr, ptr %4, align 8
  %85 = getelementptr inbounds nuw %struct.slurmdb_qos_rec_t, ptr %84, i32 0, i32 20
  %86 = load i32, ptr %85, align 8
  %87 = load ptr, ptr %3, align 8
  %88 = getelementptr inbounds nuw %struct.slurmdb_qos_rec_t, ptr %87, i32 0, i32 20
  store i32 %86, ptr %88, align 8
  %89 = load ptr, ptr %4, align 8
  %90 = getelementptr inbounds nuw %struct.slurmdb_qos_rec_t, ptr %89, i32 0, i32 21
  %91 = load i32, ptr %90, align 4
  %92 = load ptr, ptr %3, align 8
  %93 = getelementptr inbounds nuw %struct.slurmdb_qos_rec_t, ptr %92, i32 0, i32 21
  store i32 %91, ptr %93, align 4
  %94 = load ptr, ptr %3, align 8
  %95 = getelementptr inbounds nuw %struct.slurmdb_qos_rec_t, ptr %94, i32 0, i32 22
  call void @slurm_xfree(ptr noundef %95)
  %96 = load ptr, ptr %4, align 8
  %97 = getelementptr inbounds nuw %struct.slurmdb_qos_rec_t, ptr %96, i32 0, i32 22
  %98 = load ptr, ptr %97, align 8
  %99 = call ptr @xstrdup(ptr noundef %98)
  %100 = load ptr, ptr %3, align 8
  %101 = getelementptr inbounds nuw %struct.slurmdb_qos_rec_t, ptr %100, i32 0, i32 22
  store ptr %99, ptr %101, align 8
  %102 = load ptr, ptr %3, align 8
  %103 = getelementptr inbounds nuw %struct.slurmdb_qos_rec_t, ptr %102, i32 0, i32 24
  call void @slurm_xfree(ptr noundef %103)
  %104 = load ptr, ptr %4, align 8
  %105 = getelementptr inbounds nuw %struct.slurmdb_qos_rec_t, ptr %104, i32 0, i32 24
  %106 = load ptr, ptr %105, align 8
  %107 = call ptr @xstrdup(ptr noundef %106)
  %108 = load ptr, ptr %3, align 8
  %109 = getelementptr inbounds nuw %struct.slurmdb_qos_rec_t, ptr %108, i32 0, i32 24
  store ptr %107, ptr %109, align 8
  %110 = load ptr, ptr %3, align 8
  %111 = getelementptr inbounds nuw %struct.slurmdb_qos_rec_t, ptr %110, i32 0, i32 26
  call void @slurm_xfree(ptr noundef %111)
  %112 = load ptr, ptr %4, align 8
  %113 = getelementptr inbounds nuw %struct.slurmdb_qos_rec_t, ptr %112, i32 0, i32 26
  %114 = load ptr, ptr %113, align 8
  %115 = call ptr @xstrdup(ptr noundef %114)
  %116 = load ptr, ptr %3, align 8
  %117 = getelementptr inbounds nuw %struct.slurmdb_qos_rec_t, ptr %116, i32 0, i32 26
  store ptr %115, ptr %117, align 8
  %118 = load ptr, ptr %3, align 8
  %119 = getelementptr inbounds nuw %struct.slurmdb_qos_rec_t, ptr %118, i32 0, i32 28
  call void @slurm_xfree(ptr noundef %119)
  %120 = load ptr, ptr %4, align 8
  %121 = getelementptr inbounds nuw %struct.slurmdb_qos_rec_t, ptr %120, i32 0, i32 28
  %122 = load ptr, ptr %121, align 8
  %123 = call ptr @xstrdup(ptr noundef %122)
  %124 = load ptr, ptr %3, align 8
  %125 = getelementptr inbounds nuw %struct.slurmdb_qos_rec_t, ptr %124, i32 0, i32 28
  store ptr %123, ptr %125, align 8
  %126 = load ptr, ptr %3, align 8
  %127 = getelementptr inbounds nuw %struct.slurmdb_qos_rec_t, ptr %126, i32 0, i32 30
  call void @slurm_xfree(ptr noundef %127)
  %128 = load ptr, ptr %4, align 8
  %129 = getelementptr inbounds nuw %struct.slurmdb_qos_rec_t, ptr %128, i32 0, i32 30
  %130 = load ptr, ptr %129, align 8
  %131 = call ptr @xstrdup(ptr noundef %130)
  %132 = load ptr, ptr %3, align 8
  %133 = getelementptr inbounds nuw %struct.slurmdb_qos_rec_t, ptr %132, i32 0, i32 30
  store ptr %131, ptr %133, align 8
  %134 = load ptr, ptr %3, align 8
  %135 = getelementptr inbounds nuw %struct.slurmdb_qos_rec_t, ptr %134, i32 0, i32 32
  call void @slurm_xfree(ptr noundef %135)
  %136 = load ptr, ptr %4, align 8
  %137 = getelementptr inbounds nuw %struct.slurmdb_qos_rec_t, ptr %136, i32 0, i32 32
  %138 = load ptr, ptr %137, align 8
  %139 = call ptr @xstrdup(ptr noundef %138)
  %140 = load ptr, ptr %3, align 8
  %141 = getelementptr inbounds nuw %struct.slurmdb_qos_rec_t, ptr %140, i32 0, i32 32
  store ptr %139, ptr %141, align 8
  %142 = load ptr, ptr %3, align 8
  %143 = getelementptr inbounds nuw %struct.slurmdb_qos_rec_t, ptr %142, i32 0, i32 34
  call void @slurm_xfree(ptr noundef %143)
  %144 = load ptr, ptr %4, align 8
  %145 = getelementptr inbounds nuw %struct.slurmdb_qos_rec_t, ptr %144, i32 0, i32 34
  %146 = load ptr, ptr %145, align 8
  %147 = call ptr @xstrdup(ptr noundef %146)
  %148 = load ptr, ptr %3, align 8
  %149 = getelementptr inbounds nuw %struct.slurmdb_qos_rec_t, ptr %148, i32 0, i32 34
  store ptr %147, ptr %149, align 8
  %150 = load ptr, ptr %4, align 8
  %151 = getelementptr inbounds nuw %struct.slurmdb_qos_rec_t, ptr %150, i32 0, i32 36
  %152 = load i32, ptr %151, align 8
  %153 = load ptr, ptr %3, align 8
  %154 = getelementptr inbounds nuw %struct.slurmdb_qos_rec_t, ptr %153, i32 0, i32 36
  store i32 %152, ptr %154, align 8
  %155 = load ptr, ptr %4, align 8
  %156 = getelementptr inbounds nuw %struct.slurmdb_qos_rec_t, ptr %155, i32 0, i32 37
  %157 = load i32, ptr %156, align 4
  %158 = load ptr, ptr %3, align 8
  %159 = getelementptr inbounds nuw %struct.slurmdb_qos_rec_t, ptr %158, i32 0, i32 37
  store i32 %157, ptr %159, align 4
  %160 = load ptr, ptr %3, align 8
  %161 = getelementptr inbounds nuw %struct.slurmdb_qos_rec_t, ptr %160, i32 0, i32 38
  call void @slurm_xfree(ptr noundef %161)
  %162 = load ptr, ptr %4, align 8
  %163 = getelementptr inbounds nuw %struct.slurmdb_qos_rec_t, ptr %162, i32 0, i32 38
  %164 = load ptr, ptr %163, align 8
  %165 = call ptr @xstrdup(ptr noundef %164)
  %166 = load ptr, ptr %3, align 8
  %167 = getelementptr inbounds nuw %struct.slurmdb_qos_rec_t, ptr %166, i32 0, i32 38
  store ptr %165, ptr %167, align 8
  br label %168

168:                                              ; preds = %2
  %169 = load ptr, ptr %3, align 8
  %170 = getelementptr inbounds nuw %struct.slurmdb_qos_rec_t, ptr %169, i32 0, i32 42
  %171 = load ptr, ptr %170, align 8
  %172 = icmp ne ptr %171, null
  br i1 %172, label %173, label %177

173:                                              ; preds = %168
  %174 = load ptr, ptr %3, align 8
  %175 = getelementptr inbounds nuw %struct.slurmdb_qos_rec_t, ptr %174, i32 0, i32 42
  %176 = load ptr, ptr %175, align 8
  call void @list_destroy(ptr noundef %176)
  br label %177

177:                                              ; preds = %173, %168
  %178 = load ptr, ptr %3, align 8
  %179 = getelementptr inbounds nuw %struct.slurmdb_qos_rec_t, ptr %178, i32 0, i32 42
  store ptr null, ptr %179, align 8
  br label %180

180:                                              ; preds = %177
  %181 = load ptr, ptr %4, align 8
  %182 = getelementptr inbounds nuw %struct.slurmdb_qos_rec_t, ptr %181, i32 0, i32 42
  %183 = load ptr, ptr %182, align 8
  %184 = call ptr @slurm_copy_char_list(ptr noundef %183)
  %185 = load ptr, ptr %3, align 8
  %186 = getelementptr inbounds nuw %struct.slurmdb_qos_rec_t, ptr %185, i32 0, i32 42
  store ptr %184, ptr %186, align 8
  %187 = load ptr, ptr %4, align 8
  %188 = getelementptr inbounds nuw %struct.slurmdb_qos_rec_t, ptr %187, i32 0, i32 43
  %189 = load i16, ptr %188, align 8
  %190 = load ptr, ptr %3, align 8
  %191 = getelementptr inbounds nuw %struct.slurmdb_qos_rec_t, ptr %190, i32 0, i32 43
  store i16 %189, ptr %191, align 8
  %192 = load ptr, ptr %4, align 8
  %193 = getelementptr inbounds nuw %struct.slurmdb_qos_rec_t, ptr %192, i32 0, i32 44
  %194 = load i32, ptr %193, align 4
  %195 = load ptr, ptr %3, align 8
  %196 = getelementptr inbounds nuw %struct.slurmdb_qos_rec_t, ptr %195, i32 0, i32 44
  store i32 %194, ptr %196, align 4
  %197 = load ptr, ptr %4, align 8
  %198 = getelementptr inbounds nuw %struct.slurmdb_qos_rec_t, ptr %197, i32 0, i32 45
  %199 = load i32, ptr %198, align 8
  %200 = load ptr, ptr %3, align 8
  %201 = getelementptr inbounds nuw %struct.slurmdb_qos_rec_t, ptr %200, i32 0, i32 45
  store i32 %199, ptr %201, align 8
  %202 = load ptr, ptr %4, align 8
  %203 = getelementptr inbounds nuw %struct.slurmdb_qos_rec_t, ptr %202, i32 0, i32 48
  %204 = load double, ptr %203, align 8
  %205 = load ptr, ptr %3, align 8
  %206 = getelementptr inbounds nuw %struct.slurmdb_qos_rec_t, ptr %205, i32 0, i32 48
  store double %204, ptr %206, align 8
  %207 = load ptr, ptr %4, align 8
  %208 = getelementptr inbounds nuw %struct.slurmdb_qos_rec_t, ptr %207, i32 0, i32 49
  %209 = load double, ptr %208, align 8
  %210 = load ptr, ptr %3, align 8
  %211 = getelementptr inbounds nuw %struct.slurmdb_qos_rec_t, ptr %210, i32 0, i32 49
  store double %209, ptr %211, align 8
  ret void
}