; Function Attrs: nounwind uwtable
define dso_local void @slurmdb_copy_qos_rec_limits(ptr noundef initializes((20, 40)) %0, ptr noundef readonly captures(none) %1) local_unnamed_addr #0 {
  %3 = getelementptr inbounds nuw i8, ptr %1, i64 20
  %4 = load i32, ptr %3, align 4
  %5 = getelementptr inbounds nuw i8, ptr %0, i64 20
  store i32 %4, ptr %5, align 4
  %6 = getelementptr inbounds nuw i8, ptr %1, i64 24
  %7 = load i32, ptr %6, align 8
  %8 = getelementptr inbounds nuw i8, ptr %0, i64 24
  store i32 %7, ptr %8, align 8
  %9 = getelementptr inbounds nuw i8, ptr %1, i64 32
  %10 = load i32, ptr %9, align 8
  %11 = getelementptr inbounds nuw i8, ptr %0, i64 32
  store i32 %10, ptr %11, align 8
  %12 = getelementptr inbounds nuw i8, ptr %1, i64 28
  %13 = load i32, ptr %12, align 4
  %14 = getelementptr inbounds nuw i8, ptr %0, i64 28
  store i32 %13, ptr %14, align 4
  %15 = getelementptr inbounds nuw i8, ptr %1, i64 36
  %16 = load i32, ptr %15, align 4
  %17 = getelementptr inbounds nuw i8, ptr %0, i64 36
  store i32 %16, ptr %17, align 4
  %18 = getelementptr inbounds nuw i8, ptr %0, i64 40
  tail call void @slurm_xfree(ptr noundef nonnull %18) #19
  %19 = getelementptr inbounds nuw i8, ptr %1, i64 40
  %20 = load ptr, ptr %19, align 8
  %21 = tail call ptr @xstrdup(ptr noundef %20) #19
  store ptr %21, ptr %18, align 8
  %22 = getelementptr inbounds nuw i8, ptr %0, i64 56
  tail call void @slurm_xfree(ptr noundef nonnull %22) #19
  %23 = getelementptr inbounds nuw i8, ptr %1, i64 56
  %24 = load ptr, ptr %23, align 8
  %25 = tail call ptr @xstrdup(ptr noundef %24) #19
  store ptr %25, ptr %22, align 8
  %26 = getelementptr inbounds nuw i8, ptr %0, i64 72
  tail call void @slurm_xfree(ptr noundef nonnull %26) #19
  %27 = getelementptr inbounds nuw i8, ptr %1, i64 72
  %28 = load ptr, ptr %27, align 8
  %29 = tail call ptr @xstrdup(ptr noundef %28) #19
  store ptr %29, ptr %26, align 8
  %30 = getelementptr inbounds nuw i8, ptr %1, i64 88
  %31 = load i32, ptr %30, align 8
  %32 = getelementptr inbounds nuw i8, ptr %0, i64 88
  store i32 %31, ptr %32, align 8
  %33 = getelementptr inbounds nuw i8, ptr %1, i64 96
  %34 = load double, ptr %33, align 8
  %35 = getelementptr inbounds nuw i8, ptr %0, i64 96
  store double %34, ptr %35, align 8
  %36 = getelementptr inbounds nuw i8, ptr %1, i64 104
  %37 = load i32, ptr %36, align 8
  %38 = getelementptr inbounds nuw i8, ptr %0, i64 104
  store i32 %37, ptr %38, align 8
  %39 = getelementptr inbounds nuw i8, ptr %1, i64 108
  %40 = load i32, ptr %39, align 4
  %41 = getelementptr inbounds nuw i8, ptr %0, i64 108
  store i32 %40, ptr %41, align 4
  %42 = getelementptr inbounds nuw i8, ptr %1, i64 112
  %43 = load i32, ptr %42, align 8
  %44 = getelementptr inbounds nuw i8, ptr %0, i64 112
  store i32 %43, ptr %44, align 8
  %45 = getelementptr inbounds nuw i8, ptr %1, i64 116
  %46 = load i32, ptr %45, align 4
  %47 = getelementptr inbounds nuw i8, ptr %0, i64 116
  store i32 %46, ptr %47, align 4
  %48 = getelementptr inbounds nuw i8, ptr %1, i64 120
  %49 = load i32, ptr %48, align 8
  %50 = getelementptr inbounds nuw i8, ptr %0, i64 120
  store i32 %49, ptr %50, align 8
  %51 = getelementptr inbounds nuw i8, ptr %1, i64 124
  %52 = load i32, ptr %51, align 4
  %53 = getelementptr inbounds nuw i8, ptr %0, i64 124
  store i32 %52, ptr %53, align 4
  %54 = getelementptr inbounds nuw i8, ptr %0, i64 128
  tail call void @slurm_xfree(ptr noundef nonnull %54) #19
  %55 = getelementptr inbounds nuw i8, ptr %1, i64 128
  %56 = load ptr, ptr %55, align 8
  %57 = tail call ptr @xstrdup(ptr noundef %56) #19
  store ptr %57, ptr %54, align 8
  %58 = getelementptr inbounds nuw i8, ptr %0, i64 144
  tail call void @slurm_xfree(ptr noundef nonnull %58) #19
  %59 = getelementptr inbounds nuw i8, ptr %1, i64 144
  %60 = load ptr, ptr %59, align 8
  %61 = tail call ptr @xstrdup(ptr noundef %60) #19
  store ptr %61, ptr %58, align 8
  %62 = getelementptr inbounds nuw i8, ptr %0, i64 160
  tail call void @slurm_xfree(ptr noundef nonnull %62) #19
  %63 = getelementptr inbounds nuw i8, ptr %1, i64 160
  %64 = load ptr, ptr %63, align 8
  %65 = tail call ptr @xstrdup(ptr noundef %64) #19
  store ptr %65, ptr %62, align 8
  %66 = getelementptr inbounds nuw i8, ptr %0, i64 176
  tail call void @slurm_xfree(ptr noundef nonnull %66) #19
  %67 = getelementptr inbounds nuw i8, ptr %1, i64 176
  %68 = load ptr, ptr %67, align 8
  %69 = tail call ptr @xstrdup(ptr noundef %68) #19
  store ptr %69, ptr %66, align 8
  %70 = getelementptr inbounds nuw i8, ptr %0, i64 192
  tail call void @slurm_xfree(ptr noundef nonnull %70) #19
  %71 = getelementptr inbounds nuw i8, ptr %1, i64 192
  %72 = load ptr, ptr %71, align 8
  %73 = tail call ptr @xstrdup(ptr noundef %72) #19
  store ptr %73, ptr %70, align 8
  %74 = getelementptr inbounds nuw i8, ptr %0, i64 208
  tail call void @slurm_xfree(ptr noundef nonnull %74) #19
  %75 = getelementptr inbounds nuw i8, ptr %1, i64 208
  %76 = load ptr, ptr %75, align 8
  %77 = tail call ptr @xstrdup(ptr noundef %76) #19
  store ptr %77, ptr %74, align 8
  %78 = getelementptr inbounds nuw i8, ptr %0, i64 224
  tail call void @slurm_xfree(ptr noundef nonnull %78) #19
  %79 = getelementptr inbounds nuw i8, ptr %1, i64 224
  %80 = load ptr, ptr %79, align 8
  %81 = tail call ptr @xstrdup(ptr noundef %80) #19
  store ptr %81, ptr %78, align 8
  %82 = getelementptr inbounds nuw i8, ptr %1, i64 240
  %83 = load i32, ptr %82, align 8
  %84 = getelementptr inbounds nuw i8, ptr %0, i64 240
  store i32 %83, ptr %84, align 8
  %85 = getelementptr inbounds nuw i8, ptr %1, i64 244
  %86 = load i32, ptr %85, align 4
  %87 = getelementptr inbounds nuw i8, ptr %0, i64 244
  store i32 %86, ptr %87, align 4
  %88 = getelementptr inbounds nuw i8, ptr %0, i64 248
  tail call void @slurm_xfree(ptr noundef nonnull %88) #19
  %89 = getelementptr inbounds nuw i8, ptr %1, i64 248
  %90 = load ptr, ptr %89, align 8
  %91 = tail call ptr @xstrdup(ptr noundef %90) #19
  store ptr %91, ptr %88, align 8
  %92 = getelementptr inbounds nuw i8, ptr %0, i64 280
  %93 = load ptr, ptr %92, align 8
  %.not = icmp eq ptr %93, null
  br i1 %.not, label %95, label %94

94:                                               ; preds = %2
  tail call void @list_destroy(ptr noundef nonnull %93) #19
  br label %95

95:                                               ; preds = %94, %2
  store ptr null, ptr %92, align 8
  %96 = getelementptr inbounds nuw i8, ptr %1, i64 280
  %97 = load ptr, ptr %96, align 8
  %98 = tail call ptr @slurm_copy_char_list(ptr noundef %97) #19
  store ptr %98, ptr %92, align 8
  %99 = getelementptr inbounds nuw i8, ptr %1, i64 288
  %100 = load i16, ptr %99, align 8
  %101 = getelementptr inbounds nuw i8, ptr %0, i64 288
  store i16 %100, ptr %101, align 8
  %102 = getelementptr inbounds nuw i8, ptr %1, i64 292
  %103 = load i32, ptr %102, align 4
  %104 = getelementptr inbounds nuw i8, ptr %0, i64 292
  store i32 %103, ptr %104, align 4
  %105 = getelementptr inbounds nuw i8, ptr %1, i64 296
  %106 = load i32, ptr %105, align 8
  %107 = getelementptr inbounds nuw i8, ptr %0, i64 296
  store i32 %106, ptr %107, align 8
  %108 = getelementptr inbounds nuw i8, ptr %1, i64 320
  %109 = load double, ptr %108, align 8
  %110 = getelementptr inbounds nuw i8, ptr %0, i64 320
  store double %109, ptr %110, align 8
  %111 = getelementptr inbounds nuw i8, ptr %1, i64 328
  %112 = load double, ptr %111, align 8
  %113 = getelementptr inbounds nuw i8, ptr %0, i64 328
  store double %112, ptr %113, align 8
  ret void
}